; Function Attrs: nofree norecurse nosync nounwind memory(write, argmem: readwrite, inaccessiblemem: none) uwtable
define hidden noundef signext i8 @lxb_encoding_encode_windows_1258_single(ptr nocapture noundef readnone %0, ptr nocapture noundef %1, ptr nocapture noundef readnone %2, i32 noundef %3) local_unnamed_addr #6 {
  %5 = icmp ult i32 %3, 128
  br i1 %5, label %6, label %10

6:                                                ; preds = %4
  %7 = trunc i32 %3 to i8
  %8 = load ptr, ptr %1, align 8
  %9 = getelementptr inbounds i8, ptr %8, i64 1
  store ptr %9, ptr %1, align 8
  store i8 %7, ptr %8, align 1
  br label %lexbor_shs_hash_get_static.exit.thread

10:                                               ; preds = %4
  %11 = urem i32 %3, 405
  %.zext = zext nneg i32 %11 to i64
  %12 = getelementptr %struct.lexbor_shs_hash_t, ptr @lxb_encoding_single_hash_windows_1258, i64 %.zext
  %13 = getelementptr i8, ptr %12, i64 12
  br label %14

14:                                               ; preds = %17, %10
  %.0.i = phi ptr [ %13, %10 ], [ %21, %17 ]
  %15 = load i32, ptr %.0.i, align 4
  %16 = icmp eq i32 %15, %3
  br i1 %16, label %lexbor_shs_hash_get_static.exit, label %17

17:                                               ; preds = %14
  %18 = getelementptr inbounds i8, ptr %.0.i, i64 8
  %19 = load i32, ptr %18, align 4
  %20 = zext i32 %19 to i64
  %21 = getelementptr inbounds %struct.lexbor_shs_hash_t, ptr @lxb_encoding_single_hash_windows_1258, i64 %20
  %.not.i = icmp eq i32 %19, 0
  br i1 %.not.i, label %lexbor_shs_hash_get_static.exit.thread, label %14

lexbor_shs_hash_get_static.exit:                  ; preds = %14
  %22 = getelementptr inbounds i8, ptr %.0.i, i64 4
  %23 = load i32, ptr %22, align 4
  %24 = trunc i32 %23 to i8
  %25 = load ptr, ptr %1, align 8
  %26 = getelementptr inbounds i8, ptr %25, i64 1
  store ptr %26, ptr %1, align 8
  store i8 %24, ptr %25, align 1
  br label %lexbor_shs_hash_get_static.exit.thread

lexbor_shs_hash_get_static.exit.thread:           ; preds = %17, %lexbor_shs_hash_get_static.exit, %6
  %.0 = phi i8 [ 1, %6 ], [ 1, %lexbor_shs_hash_get_static.exit ], [ -1, %17 ]
  ret i8 %.0
}